; Function Attrs: nounwind uwtable
define dso_local void @appendBinaryStringInfoNT(ptr noundef captures(none) %0, ptr noundef readonly captures(none) %1, i32 noundef %2) local_unnamed_addr #0 {
  tail call void @enlargeStringInfo(ptr noundef %0, i32 noundef %2)
  %4 = load ptr, ptr %0, align 8
  %5 = getelementptr inbounds nuw i8, ptr %0, i64 8
  %6 = load i32, ptr %5, align 8
  %7 = sext i32 %6 to i64
  %8 = getelementptr inbounds i8, ptr %4, i64 %7
  %9 = sext i32 %2 to i64
  tail call void @llvm.memcpy.p0.p0.i64(ptr align 1 %8, ptr align 1 %1, i64 %9, i1 false)
  %10 = load i32, ptr %5, align 8
  %11 = add i32 %10, %2
  store i32 %11, ptr %5, align 8
  ret void
}